#include <math.h>
#include <stdio.h>
#include <stdlib.h>
#include <string.h>

int main()
{
	int n;
	scanf("%d",&n);
	int i=1;
	int sum=0;
	for(i=1;i<=n;i++)
	{
		if(i%7==0)
		{
		}
		else if(i%10==7)
		{
		}
		else if((i/10)%10==7)
		{
		}
		else
		{
			sum=sum+i*i;
		}
	}
	printf("%d",sum);
	return 0;
}