; ModuleID = '30/2132.c'
source_filename = "30/2132.c"
target datalayout = "e-m:e-p270:32:32-p271:32:32-p272:64:64-i64:64-f80:128-n8:16:32:64-S128"
target triple = "x86_64-pc-linux-gnu"

@.str = private unnamed_addr constant [3 x i8] c"%d\00", align 1

; Function Attrs: noinline nounwind uwtable
define dso_local i32 @main() #0 {
  %1 = alloca i32, align 4
  %2 = alloca i32, align 4
  %3 = alloca i32, align 4
  %4 = alloca i32, align 4
  store i32 0, i32* %1, align 4
  %5 = call i32 (i8*, ...) @__isoc99_scanf(i8* getelementptr inbounds ([3 x i8], [3 x i8]* @.str, i64 0, i64 0), i32* %2)
  store i32 1, i32* %3, align 4
  store i32 0, i32* %4, align 4
  store i32 1, i32* %3, align 4
  br label %6

6:                                                ; preds = %35, %0
  %7 = load i32, i32* %3, align 4
  %8 = load i32, i32* %2, align 4
  %9 = icmp sle i32 %7, %8
  br i1 %9, label %10, label %38

10:                                               ; preds = %6
  %11 = load i32, i32* %3, align 4
  %12 = srem i32 %11, 7
  %13 = icmp eq i32 %12, 0
  br i1 %13, label %14, label %15

14:                                               ; preds = %10
  br label %34

15:                                               ; preds = %10
  %16 = load i32, i32* %3, align 4
  %17 = srem i32 %16, 10
  %18 = icmp eq i32 %17, 7
  br i1 %18, label %19, label %20

19:                                               ; preds = %15
  br label %33

20:                                               ; preds = %15
  %21 = load i32, i32* %3, align 4
  %22 = sdiv i32 %21, 10
  %23 = srem i32 %22, 10
  %24 = icmp eq i32 %23, 7
  br i1 %24, label %25, label %26

25:                                               ; preds = %20
  br label %32

26:                                               ; preds = %20
  %27 = load i32, i32* %4, align 4
  %28 = load i32, i32* %3, align 4
  %29 = load i32, i32* %3, align 4
  %30 = mul nsw i32 %28, %29
  %31 = add nsw i32 %27, %30
  store i32 %31, i32* %4, align 4
  br label %32

32:                                               ; preds = %26, %25
  br label %33

33:                                               ; preds = %32, %19
  br label %34

34:                                               ; preds = %33, %14
  br label %35

35:                                               ; preds = %34
  %36 = load i32, i32* %3, align 4
  %37 = add nsw i32 %36, 1
  store i32 %37, i32* %3, align 4
  br label %6

38:                                               ; preds = %6
  %39 = load i32, i32* %4, align 4
  %40 = call i32 (i8*, ...) @printf(i8* getelementptr inbounds ([3 x i8], [3 x i8]* @.str, i64 0, i64 0), i32 %39)
  ret i32 0
}

declare dso_local i32 @__isoc99_scanf(i8*, ...) #1

declare dso_local i32 @printf(i8*, ...) #1


!llvm.module.flags = !{!0}
!llvm.ident = !{!1}

!0 = !{i32 1, !"wchar_size", i32 4}
!1 = !{!"clang version 10.0.0-4ubuntu1 "}
